; Function Attrs: nounwind uwtable
define ptr @l_Lean_resolveNamespaceCore___rarg___lambda__4(ptr noundef %0, ptr noundef %1, ptr noundef %2, ptr noundef %3, i8 noundef zeroext %4, ptr noundef %5, ptr noundef %6, ptr noundef %7) local_unnamed_addr #1 {
  %9 = getelementptr inbounds nuw i8, ptr %0, i64 16
  %10 = load ptr, ptr %9, align 8, !tbaa !9
  %11 = ptrtoint ptr %10 to i64
  %12 = and i64 %11, 1
  %.not = icmp eq i64 %12, 0
  br i1 %.not, label %13, label %lean_inc.exit22

13:                                               ; preds = %8
  %.val.i = load i32, ptr %10, align 4, !tbaa !4
  %14 = icmp sgt i32 %.val.i, 0
  br i1 %14, label %15, label %17, !prof !11

15:                                               ; preds = %13
  %16 = add nuw i32 %.val.i, 1
  store i32 %16, ptr %10, align 4, !tbaa !4
  br label %lean_inc.exit22

17:                                               ; preds = %13
  %.not.i23 = icmp eq i32 %.val.i, 0
  br i1 %.not.i23, label %lean_inc.exit22, label %18

18:                                               ; preds = %17
  tail call void @lean_inc_ref_cold(ptr noundef nonnull %10) #6
  br label %lean_inc.exit22

lean_inc.exit22:                                  ; preds = %18, %17, %15, %8
  %19 = ptrtoint ptr %0 to i64
  %20 = and i64 %19, 1
  %.not27 = icmp eq i64 %20, 0
  br i1 %.not27, label %21, label %lean_dec.exit

21:                                               ; preds = %lean_inc.exit22
  %22 = load i32, ptr %0, align 4, !tbaa !4
  %23 = icmp sgt i32 %22, 1
  br i1 %23, label %24, label %26, !prof !11

24:                                               ; preds = %21
  %25 = add nsw i32 %22, -1
  store i32 %25, ptr %0, align 4, !tbaa !4
  br label %lean_dec.exit

26:                                               ; preds = %21
  %.not.i = icmp eq i32 %22, 0
  br i1 %.not.i, label %lean_dec.exit, label %27

27:                                               ; preds = %26
  tail call void @lean_dec_ref_cold(ptr noundef nonnull %0) #6
  br label %lean_dec.exit

lean_dec.exit:                                    ; preds = %27, %26, %24, %lean_inc.exit22
  %28 = ptrtoint ptr %5 to i64
  %29 = and i64 %28, 1
  %.not28 = icmp eq i64 %29, 0
  br i1 %.not28, label %30, label %lean_inc.exit

30:                                               ; preds = %lean_dec.exit
  %.val.i24 = load i32, ptr %5, align 4, !tbaa !4
  %31 = icmp sgt i32 %.val.i24, 0
  br i1 %31, label %32, label %34, !prof !11

32:                                               ; preds = %30
  %33 = add nuw i32 %.val.i24, 1
  store i32 %33, ptr %5, align 4, !tbaa !4
  br label %lean_inc.exit

34:                                               ; preds = %30
  %.not.i25 = icmp eq i32 %.val.i24, 0
  br i1 %.not.i25, label %lean_inc.exit, label %35

35:                                               ; preds = %34
  tail call void @lean_inc_ref_cold(ptr noundef nonnull %5) #6
  br label %lean_inc.exit

lean_inc.exit:                                    ; preds = %35, %34, %32, %lean_dec.exit
  tail call void @lean_inc_heartbeat() #6
  %36 = tail call noalias ptr @mi_malloc_small(i64 noundef 80) #6
  %37 = icmp eq ptr %36, null
  br i1 %37, label %38, label %lean_alloc_closure.exit

38:                                               ; preds = %lean_inc.exit
  tail call void @lean_internal_panic_out_of_memory() #7
  unreachable

lean_alloc_closure.exit:                          ; preds = %lean_inc.exit
  %39 = zext i8 %4 to i64
  %40 = shl nuw nsw i64 %39, 1
  %41 = or disjoint i64 %40, 1
  %42 = inttoptr i64 %41 to ptr
  %43 = getelementptr inbounds nuw i8, ptr %36, i64 4
  store i32 1, ptr %36, align 4, !tbaa !4
  store i32 -184549296, ptr %43, align 4
  %44 = getelementptr inbounds nuw i8, ptr %36, i64 8
  store ptr @l_Lean_resolveNamespaceCore___rarg___lambda__3___boxed, ptr %44, align 8, !tbaa !9
  %45 = getelementptr inbounds nuw i8, ptr %36, i64 16
  store i16 8, ptr %45, align 8, !tbaa !14
  %46 = getelementptr inbounds nuw i8, ptr %36, i64 18
  store i16 7, ptr %46, align 2, !tbaa !14
  %47 = getelementptr inbounds nuw i8, ptr %36, i64 24
  store ptr %1, ptr %47, align 8, !tbaa !9
  %48 = getelementptr inbounds nuw i8, ptr %36, i64 32
  store ptr %7, ptr %48, align 8, !tbaa !9
  %49 = getelementptr inbounds nuw i8, ptr %36, i64 40
  store ptr %2, ptr %49, align 8, !tbaa !9
  %50 = getelementptr inbounds nuw i8, ptr %36, i64 48
  store ptr %3, ptr %50, align 8, !tbaa !9
  %51 = getelementptr inbounds nuw i8, ptr %36, i64 56
  store ptr %42, ptr %51, align 8, !tbaa !9
  %52 = getelementptr inbounds nuw i8, ptr %36, i64 64
  store ptr %5, ptr %52, align 8, !tbaa !9
  %53 = getelementptr inbounds nuw i8, ptr %36, i64 72
  store ptr %6, ptr %53, align 8, !tbaa !9
  %54 = tail call ptr @lean_apply_4(ptr noundef %5, ptr noundef nonnull inttoptr (i64 1 to ptr), ptr noundef nonnull inttoptr (i64 1 to ptr), ptr noundef %10, ptr noundef nonnull %36) #6
  ret ptr %54
}